target datalayout = "e-m:e-p270:32:32-p271:32:32-p272:64:64-i64:64-i128:128-f80:128-n8:16:32:64-S128"
target triple = "x86_64-pc-linux-gnu"

%struct.H5O_msg_class_t = type { i32, ptr, i64, i32, ptr, ptr, ptr, ptr, ptr, ptr, ptr, ptr, ptr, ptr, ptr, ptr, ptr, ptr, ptr, ptr }
%struct.H5CX_node_t = type { %struct.H5CX_t, ptr }
%struct.H5CX_t = type { i64, ptr, i64, ptr, i64, ptr, i64, ptr, i64, ptr, i64, ptr, i64, i32, i64, i8, ptr, i8, ptr, i8, i32, i8, [3 x double], i8, i64, i8, i32, i8, %struct.H5Z_cb_t, i8, ptr, i8, %struct.H5T_vlen_alloc_info_t, i8, %struct.H5T_conv_cb_t, i8, i32, i8, i8, i8, i32, i8, i8, i32, i8, i8, i32, i8, i32, i8, i64, i8, i8, i8, i8, i8, ptr, i8, ptr, i8, i32, i8, i32, i8, %struct.H5VL_connector_prop_t, i8, ptr, i8 }
%struct.H5Z_cb_t = type { ptr, ptr }
%struct.H5T_vlen_alloc_info_t = type { ptr, ptr, ptr, ptr }
%struct.H5T_conv_cb_t = type { ptr, ptr }
%struct.H5VL_connector_prop_t = type { ptr, ptr }
%struct.H5O_t = type { %struct.H5C_cache_entry_t, i64, i64, i8, i64, i8, i32, i8, i8, i64, i64, i64, i64, i32, i32, i64, i64, ptr, i64, i64, i64, i64, ptr, i8, ptr }
%struct.H5C_cache_entry_t = type { ptr, i64, i64, ptr, i8, ptr, i8, i8, i8, i8, i32, i8, i8, i8, i8, i8, i32, ptr, i32, i32, i32, i32, i32, i8, i8, ptr, ptr, ptr, ptr, ptr, ptr, i8, i32, i8, i64, ptr, i64, i64, i32, i8, i32, i32, i8, ptr, ptr, ptr }
%struct.H5O_mesg_t = type { ptr, i8, i8, i32, i32, ptr, ptr, i64 }

@H5O_init_g = external global i8, align 1
@H5_libterm_g = external global i8, align 1
@.str = private unnamed_addr constant [101 x i8] c"generated/home/dtcxzyw/WorkSpace/Projects/compilers/llvm-opt-benchmark/bench/hdf5/hdf5/src/H5Otest.c\00", align 1
@H5E_SYM_g = external global i64, align 8
@H5E_NOTFOUND_g = external global i64, align 8
@.str.1 = private unnamed_addr constant [17 x i8] c"object not found\00", align 1
@H5E_OHDR_g = external global i64, align 8
@H5E_CANTSET_g = external global i64, align 8
@.str.2 = private unnamed_addr constant [22 x i8] c"can't set API context\00", align 1
@H5E_CANTPROTECT_g = external global i64, align 8
@.str.3 = private unnamed_addr constant [29 x i8] c"unable to load object header\00", align 1
@H5E_CANTUNPROTECT_g = external global i64, align 8
@.str.5 = private unnamed_addr constant [32 x i8] c"unable to release object header\00", align 1
@H5E_CANTRESET_g = external global i64, align 8
@.str.6 = private unnamed_addr constant [24 x i8] c"can't reset API context\00", align 1
@__func__.H5O__msg_get_chunkno_test = private unnamed_addr constant [26 x i8] c"H5O__msg_get_chunkno_test\00", align 1
@.str.18 = private unnamed_addr constant [26 x i8] c"message of type not found\00", align 1

; Function Attrs: nounwind uwtable
define i32 @H5O__msg_get_chunkno_test(i64 noundef %0, i32 noundef %1, ptr noundef %2) #0 {
  %4 = alloca i64, align 8
  %5 = alloca i32, align 4
  %6 = alloca ptr, align 8
  %7 = alloca ptr, align 8
  %8 = alloca ptr, align 8
  %9 = alloca ptr, align 8
  %10 = alloca i32, align 4
  %11 = alloca %struct.H5CX_node_t, align 8
  %12 = alloca i8, align 1
  %13 = alloca i32, align 4
  %14 = alloca i8, align 1
  store i64 %0, ptr %4, align 8, !tbaa !3
  store i32 %1, ptr %5, align 4, !tbaa !12
  store ptr %2, ptr %6, align 8, !tbaa !60
  call void @llvm.lifetime.start.p0(i64 8, ptr %7) #5
  store ptr null, ptr %7, align 8, !tbaa !7
  call void @llvm.lifetime.start.p0(i64 8, ptr %8) #5
  call void @llvm.lifetime.start.p0(i64 8, ptr %9) #5
  call void @llvm.lifetime.start.p0(i64 4, ptr %10) #5
  call void @llvm.lifetime.start.p0(i64 480, ptr %11) #5
  call void @llvm.memset.p0.i64(ptr align 8 %11, i8 0, i64 480, i1 false)
  call void @llvm.lifetime.start.p0(i64 1, ptr %12) #5
  store i8 0, ptr %12, align 1, !tbaa !10
  call void @llvm.lifetime.start.p0(i64 4, ptr %13) #5
  store i32 0, ptr %13, align 4, !tbaa !12
  call void @llvm.lifetime.start.p0(i64 1, ptr %14) #5
  store i8 0, ptr %14, align 1, !tbaa !10
  %15 = load i8, ptr @H5O_init_g, align 1, !tbaa !10, !range !14, !noundef !15
  %16 = trunc i8 %15 to i1
  br i1 %16, label %21, label %17

17:                                               ; preds = %3
  %18 = load i8, ptr @H5_libterm_g, align 1, !tbaa !10, !range !14, !noundef !15
  %19 = trunc i8 %18 to i1
  %20 = xor i1 %19, true
  br label %21

21:                                               ; preds = %17, %3
  %22 = phi i1 [ true, %3 ], [ %20, %17 ]
  %23 = xor i1 %22, true
  %24 = xor i1 %23, true
  %25 = zext i1 %24 to i32
  %26 = sext i32 %25 to i64
  %27 = call i64 @llvm.expect.i64(i64 %26, i64 1)
  %28 = icmp ne i64 %27, 0
  br i1 %28, label %29, label %202

29:                                               ; preds = %21
  %30 = load i64, ptr %4, align 8, !tbaa !3
  %31 = call ptr @H5O_get_loc(i64 noundef %30)
  store ptr %31, ptr %8, align 8, !tbaa !16
  %32 = icmp eq ptr null, %31
  br i1 %32, label %33, label %52

33:                                               ; preds = %29
  br label %34

34:                                               ; preds = %33
  br label %35

35:                                               ; preds = %34
  br label %36

36:                                               ; preds = %35
  %37 = load i64, ptr @H5E_SYM_g, align 8, !tbaa !3
  %38 = load i64, ptr @H5E_NOTFOUND_g, align 8, !tbaa !3
  %39 = call i32 (ptr, ptr, i32, i64, i64, ptr, ...) @H5E_printf_stack(ptr noundef @.str, ptr noundef @__func__.H5O__msg_get_chunkno_test, i32 noundef 643, i64 noundef %37, i64 noundef %38, ptr noundef @.str.1)
  br label %40

40:                                               ; preds = %36
  br label %41

41:                                               ; preds = %40
  store i8 1, ptr %14, align 1, !tbaa !10
  %42 = load i8, ptr %14, align 1, !tbaa !10, !range !14, !noundef !15
  %43 = trunc i8 %42 to i1
  %44 = zext i1 %43 to i8
  store i8 %44, ptr %14, align 1, !tbaa !10
  br label %45

45:                                               ; preds = %41
  br label %46

46:                                               ; preds = %45
  br label %47

47:                                               ; preds = %46
  store i32 -1, ptr %13, align 4, !tbaa !12
  br label %155

48:                                               ; No predecessors!
  br label %49

49:                                               ; preds = %48
  br label %50

50:                                               ; preds = %49
  br label %51

51:                                               ; preds = %50
  br label %52

52:                                               ; preds = %51, %29
  %53 = call i32 @H5CX_push(ptr noundef %11)
  %54 = icmp slt i32 %53, 0
  br i1 %54, label %55, label %74

55:                                               ; preds = %52
  br label %56

56:                                               ; preds = %55
  br label %57

57:                                               ; preds = %56
  br label %58

58:                                               ; preds = %57
  %59 = load i64, ptr @H5E_OHDR_g, align 8, !tbaa !3
  %60 = load i64, ptr @H5E_CANTSET_g, align 8, !tbaa !3
  %61 = call i32 (ptr, ptr, i32, i64, i64, ptr, ...) @H5E_printf_stack(ptr noundef @.str, ptr noundef @__func__.H5O__msg_get_chunkno_test, i32 noundef 647, i64 noundef %59, i64 noundef %60, ptr noundef @.str.2)
  br label %62

62:                                               ; preds = %58
  br label %63

63:                                               ; preds = %62
  store i8 1, ptr %14, align 1, !tbaa !10
  %64 = load i8, ptr %14, align 1, !tbaa !10, !range !14, !noundef !15
  %65 = trunc i8 %64 to i1
  %66 = zext i1 %65 to i8
  store i8 %66, ptr %14, align 1, !tbaa !10
  br label %67

67:                                               ; preds = %63
  br label %68

68:                                               ; preds = %67
  br label %69

69:                                               ; preds = %68
  store i32 -1, ptr %13, align 4, !tbaa !12
  br label %155

70:                                               ; No predecessors!
  br label %71

71:                                               ; preds = %70
  br label %72

72:                                               ; preds = %71
  br label %73

73:                                               ; preds = %72
  br label %74

74:                                               ; preds = %73, %52
  store i8 1, ptr %12, align 1, !tbaa !10
  %75 = load ptr, ptr %8, align 8, !tbaa !16
  %76 = call ptr @H5O_protect(ptr noundef %75, i32 noundef 128, i1 noundef zeroext false)
  store ptr %76, ptr %7, align 8, !tbaa !7
  %77 = icmp eq ptr null, %76
  br i1 %77, label %78, label %97

78:                                               ; preds = %74
  br label %79

79:                                               ; preds = %78
  br label %80

80:                                               ; preds = %79
  br label %81

81:                                               ; preds = %80
  %82 = load i64, ptr @H5E_OHDR_g, align 8, !tbaa !3
  %83 = load i64, ptr @H5E_CANTPROTECT_g, align 8, !tbaa !3
  %84 = call i32 (ptr, ptr, i32, i64, i64, ptr, ...) @H5E_printf_stack(ptr noundef @.str, ptr noundef @__func__.H5O__msg_get_chunkno_test, i32 noundef 652, i64 noundef %82, i64 noundef %83, ptr noundef @.str.3)
  br label %85

85:                                               ; preds = %81
  br label %86

86:                                               ; preds = %85
  store i8 1, ptr %14, align 1, !tbaa !10
  %87 = load i8, ptr %14, align 1, !tbaa !10, !range !14, !noundef !15
  %88 = trunc i8 %87 to i1
  %89 = zext i1 %88 to i8
  store i8 %89, ptr %14, align 1, !tbaa !10
  br label %90

90:                                               ; preds = %86
  br label %91

91:                                               ; preds = %90
  br label %92

92:                                               ; preds = %91
  store i32 -1, ptr %13, align 4, !tbaa !12
  br label %155

93:                                               ; No predecessors!
  br label %94

94:                                               ; preds = %93
  br label %95

95:                                               ; preds = %94
  br label %96

96:                                               ; preds = %95
  br label %97

97:                                               ; preds = %96, %74
  store i32 0, ptr %10, align 4, !tbaa !12
  %98 = load ptr, ptr %7, align 8, !tbaa !7
  %99 = getelementptr inbounds nuw %struct.H5O_t, ptr %98, i32 0, i32 17
  %100 = load ptr, ptr %99, align 8, !tbaa !41
  %101 = getelementptr inbounds %struct.H5O_mesg_t, ptr %100, i64 0
  store ptr %101, ptr %9, align 8, !tbaa !42
  br label %102

102:                                              ; preds = %123, %97
  %103 = load i32, ptr %10, align 4, !tbaa !12
  %104 = zext i32 %103 to i64
  %105 = load ptr, ptr %7, align 8, !tbaa !7
  %106 = getelementptr inbounds nuw %struct.H5O_t, ptr %105, i32 0, i32 15
  %107 = load i64, ptr %106, align 8, !tbaa !43
  %108 = icmp ult i64 %104, %107
  br i1 %108, label %109, label %128

109:                                              ; preds = %102
  %110 = load ptr, ptr %9, align 8, !tbaa !42
  %111 = getelementptr inbounds nuw %struct.H5O_mesg_t, ptr %110, i32 0, i32 0
  %112 = load ptr, ptr %111, align 8, !tbaa !44
  %113 = getelementptr inbounds nuw %struct.H5O_msg_class_t, ptr %112, i32 0, i32 0
  %114 = load i32, ptr %113, align 8, !tbaa !48
  %115 = load i32, ptr %5, align 4, !tbaa !12
  %116 = icmp eq i32 %114, %115
  br i1 %116, label %117, label %122

117:                                              ; preds = %109
  %118 = load ptr, ptr %9, align 8, !tbaa !42
  %119 = getelementptr inbounds nuw %struct.H5O_mesg_t, ptr %118, i32 0, i32 4
  %120 = load i32, ptr %119, align 8, !tbaa !63
  %121 = load ptr, ptr %6, align 8, !tbaa !60
  store i32 %120, ptr %121, align 4, !tbaa !12
  br label %128

122:                                              ; preds = %109
  br label %123

123:                                              ; preds = %122
  %124 = load i32, ptr %10, align 4, !tbaa !12
  %125 = add i32 %124, 1
  store i32 %125, ptr %10, align 4, !tbaa !12
  %126 = load ptr, ptr %9, align 8, !tbaa !42
  %127 = getelementptr inbounds nuw %struct.H5O_mesg_t, ptr %126, i32 1
  store ptr %127, ptr %9, align 8, !tbaa !42
  br label %102, !llvm.loop !64

128:                                              ; preds = %117, %102
  %129 = load i32, ptr %10, align 4, !tbaa !12
  %130 = zext i32 %129 to i64
  %131 = load ptr, ptr %7, align 8, !tbaa !7
  %132 = getelementptr inbounds nuw %struct.H5O_t, ptr %131, i32 0, i32 15
  %133 = load i64, ptr %132, align 8, !tbaa !43
  %134 = icmp eq i64 %130, %133
  br i1 %134, label %135, label %154

135:                                              ; preds = %128
  br label %136

136:                                              ; preds = %135
  br label %137

137:                                              ; preds = %136
  br label %138

138:                                              ; preds = %137
  %139 = load i64, ptr @H5E_OHDR_g, align 8, !tbaa !3
  %140 = load i64, ptr @H5E_NOTFOUND_g, align 8, !tbaa !3
  %141 = call i32 (ptr, ptr, i32, i64, i64, ptr, ...) @H5E_printf_stack(ptr noundef @.str, ptr noundef @__func__.H5O__msg_get_chunkno_test, i32 noundef 666, i64 noundef %139, i64 noundef %140, ptr noundef @.str.18)
  br label %142

142:                                              ; preds = %138
  br label %143

143:                                              ; preds = %142
  store i8 1, ptr %14, align 1, !tbaa !10
  %144 = load i8, ptr %14, align 1, !tbaa !10, !range !14, !noundef !15
  %145 = trunc i8 %144 to i1
  %146 = zext i1 %145 to i8
  store i8 %146, ptr %14, align 1, !tbaa !10
  br label %147

147:                                              ; preds = %143
  br label %148

148:                                              ; preds = %147
  br label %149

149:                                              ; preds = %148
  store i32 -1, ptr %13, align 4, !tbaa !12
  br label %155

150:                                              ; No predecessors!
  br label %151

151:                                              ; preds = %150
  br label %152

152:                                              ; preds = %151
  br label %153

153:                                              ; preds = %152
  br label %154

154:                                              ; preds = %153, %128
  br label %155

155:                                              ; preds = %154, %149, %92, %69, %47
  %156 = load ptr, ptr %7, align 8, !tbaa !7
  %157 = icmp ne ptr %156, null
  br i1 %157, label %158, label %179

158:                                              ; preds = %155
  %159 = load ptr, ptr %8, align 8, !tbaa !16
  %160 = load ptr, ptr %7, align 8, !tbaa !7
  %161 = call i32 @H5O_unprotect(ptr noundef %159, ptr noundef %160, i32 noundef 0)
  %162 = icmp slt i32 %161, 0
  br i1 %162, label %163, label %179

163:                                              ; preds = %158
  br label %164

164:                                              ; preds = %163
  br label %165

165:                                              ; preds = %164
  br label %166

166:                                              ; preds = %165
  %167 = load i64, ptr @H5E_OHDR_g, align 8, !tbaa !3
  %168 = load i64, ptr @H5E_CANTUNPROTECT_g, align 8, !tbaa !3
  %169 = call i32 (ptr, ptr, i32, i64, i64, ptr, ...) @H5E_printf_stack(ptr noundef @.str, ptr noundef @__func__.H5O__msg_get_chunkno_test, i32 noundef 670, i64 noundef %167, i64 noundef %168, ptr noundef @.str.5)
  br label %170

170:                                              ; preds = %166
  br label %171

171:                                              ; preds = %170
  store i8 1, ptr %14, align 1, !tbaa !10
  %172 = load i8, ptr %14, align 1, !tbaa !10, !range !14, !noundef !15
  %173 = trunc i8 %172 to i1
  %174 = zext i1 %173 to i8
  store i8 %174, ptr %14, align 1, !tbaa !10
  br label %175

175:                                              ; preds = %171
  br label %176

176:                                              ; preds = %175
  store i32 -1, ptr %13, align 4, !tbaa !12
  br label %177

177:                                              ; preds = %176
  br label %178

178:                                              ; preds = %177
  br label %179

179:                                              ; preds = %178, %158, %155
  %180 = load i8, ptr %12, align 1, !tbaa !10, !range !14, !noundef !15
  %181 = trunc i8 %180 to i1
  br i1 %181, label %182, label %201

182:                                              ; preds = %179
  %183 = call i32 @H5CX_pop(i1 noundef zeroext false)
  %184 = icmp slt i32 %183, 0
  br i1 %184, label %185, label %201

185:                                              ; preds = %182
  br label %186

186:                                              ; preds = %185
  br label %187

187:                                              ; preds = %186
  br label %188

188:                                              ; preds = %187
  %189 = load i64, ptr @H5E_OHDR_g, align 8, !tbaa !3
  %190 = load i64, ptr @H5E_CANTRESET_g, align 8, !tbaa !3
  %191 = call i32 (ptr, ptr, i32, i64, i64, ptr, ...) @H5E_printf_stack(ptr noundef @.str, ptr noundef @__func__.H5O__msg_get_chunkno_test, i32 noundef 672, i64 noundef %189, i64 noundef %190, ptr noundef @.str.6)
  br label %192

192:                                              ; preds = %188
  br label %193

193:                                              ; preds = %192
  store i8 1, ptr %14, align 1, !tbaa !10
  %194 = load i8, ptr %14, align 1, !tbaa !10, !range !14, !noundef !15
  %195 = trunc i8 %194 to i1
  %196 = zext i1 %195 to i8
  store i8 %196, ptr %14, align 1, !tbaa !10
  br label %197

197:                                              ; preds = %193
  br label %198

198:                                              ; preds = %197
  store i32 -1, ptr %13, align 4, !tbaa !12
  br label %199

199:                                              ; preds = %198
  br label %200

200:                                              ; preds = %199
  br label %201

201:                                              ; preds = %200, %182, %179
  br label %202

202:                                              ; preds = %201, %21
  %203 = load i32, ptr %13, align 4, !tbaa !12
  call void @llvm.lifetime.end.p0(i64 1, ptr %14) #5
  call void @llvm.lifetime.end.p0(i64 4, ptr %13) #5
  call void @llvm.lifetime.end.p0(i64 1, ptr %12) #5
  call void @llvm.lifetime.end.p0(i64 480, ptr %11) #5
  call void @llvm.lifetime.end.p0(i64 4, ptr %10) #5
  call void @llvm.lifetime.end.p0(i64 8, ptr %9) #5
  call void @llvm.lifetime.end.p0(i64 8, ptr %8) #5
  call void @llvm.lifetime.end.p0(i64 8, ptr %7) #5
  ret i32 %203
}