; Function Attrs: nounwind uwtable
define range(i32 -1, 1) i32 @H5O__msg_get_chunkno_test(i64 noundef %0, i32 noundef %1, ptr noundef writeonly captures(none) %2) local_unnamed_addr #0 {
  %4 = alloca %struct.H5CX_node_t, align 8
  call void @llvm.lifetime.start.p0(i64 480, ptr nonnull %4) #4
  call void @llvm.memset.p0.i64(ptr noundef nonnull align 8 dereferenceable(480) %4, i8 0, i64 480, i1 false)
  %5 = load i8, ptr @H5O_init_g, align 1, !tbaa !3, !range !7, !noundef !8
  %6 = trunc nuw i8 %5 to i1
  %7 = load i8, ptr @H5_libterm_g, align 1, !range !7
  %8 = trunc nuw i8 %7 to i1
  %9 = xor i1 %8, true
  %10 = select i1 %6, i1 true, i1 %9
  br i1 %10, label %11, label %.thread41, !prof !9

11:                                               ; preds = %3
  %12 = tail call ptr @H5O_get_loc(i64 noundef %0) #4
  %13 = icmp eq ptr %12, null
  br i1 %13, label %14, label %18

14:                                               ; preds = %11
  %15 = load i64, ptr @H5E_SYM_g, align 8, !tbaa !10
  %16 = load i64, ptr @H5E_NOTFOUND_g, align 8, !tbaa !10
  %17 = tail call i32 (ptr, ptr, i32, i64, i64, ptr, ...) @H5E_printf_stack(ptr noundef nonnull @.str, ptr noundef nonnull @__func__.H5O__msg_get_chunkno_test, i32 noundef 643, i64 noundef %15, i64 noundef %16, ptr noundef nonnull @.str.1) #4
  br label %.thread41

18:                                               ; preds = %11
  %19 = call i32 @H5CX_push(ptr noundef nonnull %4) #4
  %20 = icmp slt i32 %19, 0
  br i1 %20, label %21, label %25

21:                                               ; preds = %18
  %22 = load i64, ptr @H5E_OHDR_g, align 8, !tbaa !10
  %23 = load i64, ptr @H5E_CANTSET_g, align 8, !tbaa !10
  %24 = call i32 (ptr, ptr, i32, i64, i64, ptr, ...) @H5E_printf_stack(ptr noundef nonnull @.str, ptr noundef nonnull @__func__.H5O__msg_get_chunkno_test, i32 noundef 647, i64 noundef %22, i64 noundef %23, ptr noundef nonnull @.str.2) #4
  br label %.thread41

25:                                               ; preds = %18
  %26 = call ptr @H5O_protect(ptr noundef nonnull %12, i32 noundef 128, i1 noundef zeroext false) #4
  %27 = icmp eq ptr %26, null
  br i1 %27, label %57, label %28

28:                                               ; preds = %25
  %29 = getelementptr inbounds nuw i8, ptr %26, i64 336
  %30 = load i64, ptr %29, align 8, !tbaa !34
  %.not = icmp eq i64 %30, 0
  br i1 %.not, label %.loopexit.thread, label %.lr.ph.preheader

.lr.ph.preheader:                                 ; preds = %28
  %31 = getelementptr inbounds nuw i8, ptr %26, i64 352
  %32 = load ptr, ptr %31, align 8, !tbaa !35
  %33 = load ptr, ptr %32, align 8, !tbaa !36
  %34 = load i32, ptr %33, align 8, !tbaa !40
  %35 = icmp eq i32 %34, %1
  br i1 %35, label %.lr.ph._crit_edge, label %.lr.ph61

.lr.ph:                                           ; preds = %.lr.ph61
  %36 = getelementptr inbounds nuw i8, ptr %.0254760, i64 48
  %37 = load ptr, ptr %36, align 8, !tbaa !36
  %38 = load i32, ptr %37, align 8, !tbaa !40
  %39 = icmp eq i32 %38, %1
  br i1 %39, label %.lr.ph._crit_edge, label %.lr.ph61, !llvm.loop !54

.lr.ph._crit_edge:                                ; preds = %.lr.ph, %.lr.ph.preheader
  %.lcssa = phi i64 [ 0, %.lr.ph.preheader ], [ %43, %.lr.ph ]
  %.02547.lcssa = phi ptr [ %32, %.lr.ph.preheader ], [ %36, %.lr.ph ]
  %40 = getelementptr inbounds nuw i8, ptr %.02547.lcssa, i64 16
  %41 = load i32, ptr %40, align 8, !tbaa !55
  store i32 %41, ptr %2, align 4, !tbaa !53
  br label %.loopexit

.lr.ph61:                                         ; preds = %.lr.ph.preheader, %.lr.ph
  %.0254760 = phi ptr [ %36, %.lr.ph ], [ %32, %.lr.ph.preheader ]
  %.0244859 = phi i32 [ %42, %.lr.ph ], [ 0, %.lr.ph.preheader ]
  %42 = add i32 %.0244859, 1
  %43 = zext i32 %42 to i64
  %44 = icmp ugt i64 %30, %43
  br i1 %44, label %.lr.ph, label %.loopexit, !llvm.loop !54

.loopexit:                                        ; preds = %.lr.ph61, %.lr.ph._crit_edge
  %45 = phi i64 [ %.lcssa, %.lr.ph._crit_edge ], [ %43, %.lr.ph61 ]
  %46 = icmp eq i64 %30, %45
  br i1 %46, label %.loopexit.thread, label %50

.loopexit.thread:                                 ; preds = %28, %.loopexit
  %47 = load i64, ptr @H5E_OHDR_g, align 8, !tbaa !10
  %48 = load i64, ptr @H5E_NOTFOUND_g, align 8, !tbaa !10
  %49 = call i32 (ptr, ptr, i32, i64, i64, ptr, ...) @H5E_printf_stack(ptr noundef nonnull @.str, ptr noundef nonnull @__func__.H5O__msg_get_chunkno_test, i32 noundef 666, i64 noundef %47, i64 noundef %48, ptr noundef nonnull @.str.18) #4
  br label %50

50:                                               ; preds = %.loopexit.thread, %.loopexit
  %.1 = phi i32 [ -1, %.loopexit.thread ], [ 0, %.loopexit ]
  %51 = call i32 @H5O_unprotect(ptr noundef nonnull %12, ptr noundef nonnull %26, i32 noundef 0) #4
  %52 = icmp slt i32 %51, 0
  br i1 %52, label %53, label %.thread36

53:                                               ; preds = %50
  %54 = load i64, ptr @H5E_OHDR_g, align 8, !tbaa !10
  %55 = load i64, ptr @H5E_CANTUNPROTECT_g, align 8, !tbaa !10
  %56 = call i32 (ptr, ptr, i32, i64, i64, ptr, ...) @H5E_printf_stack(ptr noundef nonnull @.str, ptr noundef nonnull @__func__.H5O__msg_get_chunkno_test, i32 noundef 670, i64 noundef %54, i64 noundef %55, ptr noundef nonnull @.str.5) #4
  br label %.thread36

57:                                               ; preds = %25
  %58 = load i64, ptr @H5E_OHDR_g, align 8, !tbaa !10
  %59 = load i64, ptr @H5E_CANTPROTECT_g, align 8, !tbaa !10
  %60 = call i32 (ptr, ptr, i32, i64, i64, ptr, ...) @H5E_printf_stack(ptr noundef nonnull @.str, ptr noundef nonnull @__func__.H5O__msg_get_chunkno_test, i32 noundef 652, i64 noundef %58, i64 noundef %59, ptr noundef nonnull @.str.3) #4
  br label %.thread36

.thread36:                                        ; preds = %50, %53, %57
  %.239 = phi i32 [ -1, %57 ], [ %.1, %50 ], [ -1, %53 ]
  %61 = call i32 @H5CX_pop(i1 noundef zeroext false) #4
  %62 = icmp slt i32 %61, 0
  br i1 %62, label %63, label %.thread41

63:                                               ; preds = %.thread36
  %64 = load i64, ptr @H5E_OHDR_g, align 8, !tbaa !10
  %65 = load i64, ptr @H5E_CANTRESET_g, align 8, !tbaa !10
  %66 = call i32 (ptr, ptr, i32, i64, i64, ptr, ...) @H5E_printf_stack(ptr noundef nonnull @.str, ptr noundef nonnull @__func__.H5O__msg_get_chunkno_test, i32 noundef 672, i64 noundef %64, i64 noundef %65, ptr noundef nonnull @.str.6) #4
  br label %.thread41

.thread41:                                        ; preds = %14, %21, %.thread36, %63, %3
  %.0 = phi i32 [ -1, %63 ], [ %.239, %.thread36 ], [ 0, %3 ], [ -1, %21 ], [ -1, %14 ]
  call void @llvm.lifetime.end.p0(i64 480, ptr nonnull %4) #4
  ret i32 %.0
}